; Function Attrs: inlinehint mustprogress nounwind optsize uwtable
define internal noundef ptr @"_ZZN8nanobind6detail11func_createILb0ELb0EZNS1_ILb0ELb1EZL32nanobind_init_test_functions_extRNS_7module_EE4$_22iJOiEJLm0EEJNS_5scopeENS_4nameENS_10call_guardIJ13my_call_guardEEEEEEP7_objectOT1_PFT2_DpT3_ESt16integer_sequenceImJXspT4_EEEDpRKT5_EUlS5_E_iJS5_EJLm0EEJS6_S7_SA_EEESC_SE_SJ_SL_SP_ENUlPvPSC_PhNS_9rv_policyEPNS0_12cleanup_listEE_8__invokeESR_SS_ST_SU_SW_"(ptr readnone captures(none) %0, ptr noundef readonly captures(none) %1, ptr noundef readonly captures(none) %2, i32 %3, ptr readnone captures(none) %4) #17 align 2 personality ptr @__gxx_personality_v0 {
  %6 = alloca %"struct.nanobind::detail::tuple.217", align 4
  call void @llvm.lifetime.start.p0(i64 4, ptr nonnull %6) #27
  %7 = load ptr, ptr %1, align 8, !tbaa !158
  %8 = load i8, ptr %2, align 1, !tbaa !41
  %9 = call noundef zeroext i1 @_ZN8nanobind6detail8load_i32EP7_objecthPi(ptr noundef %7, i8 noundef zeroext %8, ptr noundef nonnull align 4 dereferenceable(4) %6) #31
  br i1 %9, label %10, label %"_ZZN8nanobind6detail11func_createILb0ELb0EZNS1_ILb0ELb1EZL32nanobind_init_test_functions_extRNS_7module_EE4$_22iJOiEJLm0EEJNS_5scopeENS_4nameENS_10call_guardIJ13my_call_guardEEEEEEP7_objectOT1_PFT2_DpT3_ESt16integer_sequenceImJXspT4_EEEDpRKT5_EUlS5_E_iJS5_EJLm0EEJS6_S7_SA_EEESC_SE_SJ_SL_SP_ENKUlPvPSC_PhNS_9rv_policyEPNS0_12cleanup_listEE_clESR_SS_ST_SU_SW_.exit"

10:                                               ; preds = %5
  %.val = load i32, ptr %6, align 4, !tbaa !36
  store i32 2, ptr @call_guard_value, align 4, !tbaa !36
  %11 = sext i32 %.val to i64
  %12 = invoke ptr @PyLong_FromLong(i64 noundef %11) #28
          to label %"_ZZN8nanobind6detail11func_createILb0ELb0EZNS1_ILb0ELb1EZL32nanobind_init_test_functions_extRNS_7module_EE4$_22iJOiEJLm0EEJNS_5scopeENS_4nameENS_10call_guardIJ13my_call_guardEEEEEEP7_objectOT1_PFT2_DpT3_ESt16integer_sequenceImJXspT4_EEEDpRKT5_EUlS5_E_iJS5_EJLm0EEJS6_S7_SA_EEESC_SE_SJ_SL_SP_ENKUlPvPSC_PhNS_9rv_policyEPNS0_12cleanup_listEE_clESR_SS_ST_SU_SW_.exit" unwind label %13

13:                                               ; preds = %10
  %14 = landingpad { ptr, i32 }
          catch ptr null
  %15 = extractvalue { ptr, i32 } %14, 0
  call void @__clang_call_terminate(ptr %15) #30
  unreachable

"_ZZN8nanobind6detail11func_createILb0ELb0EZNS1_ILb0ELb1EZL32nanobind_init_test_functions_extRNS_7module_EE4$_22iJOiEJLm0EEJNS_5scopeENS_4nameENS_10call_guardIJ13my_call_guardEEEEEEP7_objectOT1_PFT2_DpT3_ESt16integer_sequenceImJXspT4_EEEDpRKT5_EUlS5_E_iJS5_EJLm0EEJS6_S7_SA_EEESC_SE_SJ_SL_SP_ENKUlPvPSC_PhNS_9rv_policyEPNS0_12cleanup_listEE_clESR_SS_ST_SU_SW_.exit": ; preds = %10, %5
  %.0.i = phi ptr [ inttoptr (i64 1 to ptr), %5 ], [ %12, %10 ]
  call void @llvm.lifetime.end.p0(i64 4, ptr nonnull %6) #27
  ret ptr %.0.i
}